(lp0
VRock Stock
p1
aVDJJOSH
p2
aVPsycho Candy Radio
p3
aVClonisa Radio Demo
p4
aVRadio Facciagiovane
p5
aV181.FM - Energy 93 - Euro Dance
p6
aVRadio Disco Master - Disco Moysiki 24/7 (by nasos765 &amp; senius)
p7
aVRadio Suites Recepcao (awmix.com)
p8
aVZ Talk Radio
p9
aVCALMRADIO.COM - MOVIEOLA - Sampler
p10
aVRadio Zeta
p11
aVToxicNet Tunes
p12
aVSinuous Sounds
p13
aVServios acesse 'www.midiaambiente.com.br'
p14
aVGrupo Stereo Siete
p15
aVPittsburgh Oldies Channel
p16
aVSztar fM emlekradio
p17
aVNetRadioVolOne aus dem Studio Segeberg
p18
aVCorua Radio
p19
aVRdio ImBrazil 64
p20
aS''
p21
aVAMERICA'S BEST BALLADS RADIO (1.FM TM)
p22
aVRadio Quintavenida
p23
aV1.FM - AMERICA'S BEST BALLADS RADIO
p24
aVRadio Mar-Cha from the heart of The Hague in Holland
p25
ag21
ag21
aVTimakles Radio
p26
aVINE Radio
p27
aVStereoplaybeat 'La Radio Que Tu Controlas '
p28
aVR?dio Inthemix The Number One
p29
aVRFPRADIO.COM | Make It Pop
p30
aVRadio Miradouro - Sao Vicente - Ilha da Madeira
p31
aVFreedom One Radio
p32
ag21
ag21
aVRadio Melody Jujuy
p33
aVVictor Manuel Tolosa Stream
p34
aVAtalaia fm
p35
aVCounty Linx Radio
p36
aVDigi Mix Radio
p37
aVLong Walk SC
p38
aVunpopular.radio
p39
aVMontedgardoRadio.com
p40
aViwayhigh
p41
aVRaven Radio Girl Power 24/7
p42
aVCounterfm
p43
aVLa Rambla Sv
p44
aVDreamCloud Radio Hits
p45
aVRFPRADIO.COM | Make It Pop
p46
aVAUTO DJ )( http://road-rageradio.com )
p47
aVRBP-AutoDJ
p48
aVSerenity Groove Radio International
p49
aVRadio Neta La Radio del Amor
p50
aVEasy NET Muzik Hit
p51
aVLions-Radio on air
p52
aVChatsaloonradio
p53
aVRockstream Radio
p54
aVAltRadio.us
p55
aVBlues Rock - ROCKRADIO.COM
p56
aVDJ~JUGGALO~4~LIFE
p57
aVRdio Games Brasil
p58
aVShanCommunityRADIO
p59
aVMusic Money Mixtapes - MMMRADIO
p60
aVARCADE RADIO - The LARGEST Collection Of RETRO Game Music
p61
aVRADIO COMUNITARIA 107.7
p62
aVBlazin Hot Radio
p63
aVINDEX
p64
aVRadio Web Melodia
p65
aVWorldofHouse Radio - 64 kbps
p66
aVslr2 teststream top50 Rock Pop 90s 80s todayslr2 teststream
p67
aVTemporadio 1 Hier spielt die Musik!
p68
aVYourworldwideparty.com
p69
aVPARADISE CELEBRITY RADIO STATION
p70
aVNaughty Desires Radio
p71
aVdj pol (sl)
p72
aVTHCC LIVE RADIO
p73
aVWVFJ 93.3 The Joy FM
p74
aVPK en PS - Patrick Kicken en Paul Smit - Praten over Bewustzijn
p75
aVBMRadio.de
p76
aVkiss canaries
p77
aVJFL Country
p78
aVCesarweb
p79
aV181.FM - Kristmas Kountry (Hot Country Christmas)
p80
aVRADIONUBERU - DJ VENUSI DESDE ANDORRA
p81
aVKonectaLife
p82
aVCarlos Nieto by www.db-lop.com
p83
aVRadiOgidena Music
p84
aVOldies Paradise
p85
aVMalaysia One Radio Station
p86
aVWKSC RADIO
p87
aVbeatmasterradio
p88
aVThe BlockParty and Smooth Covers, Brought to you by Streammadness!
p89
aVJohnFM
p90
aVg3dasradio (aus dem jufuhaus berlin)
p91
ag21
aVRadioBengel
p92
aViDemo
p93
aVRadio MegaMuzik
p94
aVHawkestone Radio Network
p95
aVDYHARD-RADIO
p96
aVRipRockRadio
p97
aVWDVU DeVry University Radio
p98
aVAda Berani FM
p99
aVMITA Radio.com - Your Music Variation Station!
p100
aVROM 106.5 Fm - Lokalradio Miedernach
p101
aVZona 6 - Maistra
p102
aVSDB Radio
p103
aVwww.sky-fm.de
p104
aVsnookja
p105
aVDemo 4
p106
aVKEBEKSAT NETWORK
p107
aVVeneMaxFM
p108
ag21
aVRadio Rio Preto Norte
p109
aVFarfalla
p110
aVEVDJ
p111
aVBurnin Radio | Rock n Roll Radio for my Friends !!!
p112
aVNoPayRadio
p113
ag21
aVthemastfmnet
p114
aVDexN Radio
p115
aVGamesGBR
p116
aVLA MIX
p117
aVhttp://radio.chlame.net:8695
p118
aVRadio Georgia Machado (awmix.com)
p119
aVCactus Radio - live from the desert at 101.9 FM, Tempe, Arizona, U.S.A. with 5,000+ songs
p120
aVBOGART RADIO Mobile
p121
aVRADIO ZEROSEI
p122
aVNon-Stop Country Radio
p123
aVBiker Trash Network | BTN Radio | Classic Rock &amp; Roll
p124
aVSBE Country 2
p125
aVReal Radio XS Digital
p126
aVStarlight Entertainment
p127
aV106 The Mix
p128
a.