(lp0
VAlter ego Conectado
p1
aVautomation
p2
aVCiclano Host - AAC
p3
aVdewaSTACJA
p4
aVCHEL_RADIO
p5
aVDJ NANO
p6
aVRadio Kaboom
p7
aVR@dio Algemeen - Host by www.FreeSHOUTcast.com
p8
aVAlternative Rock Variety @ MEGASHUFFLE.com
p9
aVFervor Radio
p10
aS''
p11
ag11
aVONDA LITORAL CADIZ
p12
aVSENSATIONS Normandie 93.4
p13
aVDJvalkhoven
p14
aV1.FM - ABSOLUTE 90's RADIO
p15
aVSpotlight Radio 2.0
p16
aVAloha Roller Radio
p17
aVJuKeBoX Offered By TrueShell
p18
aVRadioBotekocom
p19
aVA-Lounge
p20
aVHot Dance Radio - Hits With A Beat!
p21
aVF5 Solues - Streaming AAC Plus e Sites para Rdios
p22
aVBriskFM - Only the Freshest Music
p23
aVmwradio
p24
aVRadio Xtreme ...ZWO
p25
aVSuper Magazine Modas
p26
aVThe Shoot Radio
p27
aVClassic Hits Radio Canada
p28
aVRadio Exceso Desde Cd Juarez Chih Mexico
p29
aVMuzyczna Strona Radomska
p30
aVRdio Turbo Hits
p31
aVAlice 24 Stream
p32
aVToxicNet Techno
p33
aVRadio Grmljavina
p34
aVCALMRADIO.COM - MOVIEOLA - Sampler
p35
aVRadio Filhos da Serva
p36
aVPower217Radio.com
p37
aVDJ Flappie @ radio1308
p38
aVAUTO DJ MUSIConline
p39
aVAutoDJ singsumkun.com
p40
aVradioclubsintra
p41
aVREACH 2.0 Radio
p42
aVKrystal's Stream: My Station name
p43
aVIntense World of Rock
p44
aVRadioalpina
p45
aVRadio Paranoia (64kbps)
p46
aVFALL IN LOVE RADIO
p47
aVBestNetRadio.com - Christmas Pop
p48
aVWILD RADIO - Greece - www.wildradio.gr
p49
aV**RaDio_DeStInY**
p50
aVMusicRadio WABC
p51
aVWorld Wide Studio Radio
p52
aVBig R Radio - Christmas Classics
p53
aVCheeseburgerjoe Radio
p54
aVJuiceBoXx Radio
p55
aVFeel the Mix Radio
p56
aVx0_D3rCamufle_0x emitiendo para lacasadelavida
p57
aVRock
p58
aVRadio Max - CHR Radio
p59
aViWeb Radio
p60
aVLegends-Radio
p61
aVRadio Flash Music: Playlist
p62
aVRdio Legal na Web
p63
aVRevoluSongs Radio Dj'Muddy
p64
aVRadio Free Phoenix (Free Form Rock)
p65
aVColossus Night Gang
p66
aVCBS-FM Cork: Ireland
p67
aVC4-RADIO
p68
aVEfene Jams Station
p69
aVWNMC 48K mono
p70
aVzimiara
p71
aV///ELEKTROWAVE.ORG Radio 64 AAC+
p72
aVMusicVictim - MV2
p73
ag11
aV95XPR
p74
aVbirminghamsoundsradio
p75
aVMiix FM Network
p76
aVRadio Nintendo
p77
aVAfterHoursDJs.org - All Live, All The Time
p78
aV'AddictedToRadio.com - Love Bites'
p79
aVAbsolute Spazz
p80
aV1RockFm
p81
aV1.FM - ALL EURO 80's RADIO
p82
aVDj Grady's Stream
p83
aVBestNetRadio.com - Christmas Rock
p84
aVClassic Rock Party!
p85
aV1.FM - AMSTERDAM TRANCE RADIO
p86
aVRadio Flo Test
p87
aVHotMusicFm
p88
aVMyToony - ~70er Channel~
p89
aVAKAradio: LowBand
p90
aVradio singsing
p91
aVSlusate Radio Medeno - test faza -
p92
aVDUBSTEP RADIO - [www.dubstepradio.fm]
p93
ag11
aVRadio-Oneiro -STEREO- Best of
p94
aVJom-Poon Radio
p95
aVShockwave Riders
p96
aVSonido Virtual
p97
aVEstacion Solaris
p98
aVradiomegacentrodigital
p99
aVCANAL SNRB05
p100
aVRADIO GOZUBUYUKOGLU
p101
aVBurnin Radio | ~ Rock n Roll Radio for my Friends 
p102
aVNo Talk Jalk
p103
aVRadioacervo
p104
aVIsland Classic Hits Radio
p105
aVRadio Rodja 756am v2
p106
aVRadio Impact FM Manele | www.RadioImpact.ucoz.com
p107
aVGolden Radio Italia 80s
p108
aVA1A Trop Rock
p109
aVTeddy's Media Radio
p110
aVDIMENSIONE RADIO
p111
a.