(lp0
V2000FM - Alternative Rock
p1
aVJ-G Radio - Hi -
p2
aVSubstrate
p3
aVRadio Del Sur Online
p4
aVHits 80 &amp; 90 - Radio Del Sur Online - Uruguay
p5
aVWide Radius Radio
p6
aVXonik Radio
p7
aVClub Savannah
p8
aVWitney Radio
p9
aVBoss Boss Radio
p10
aVOldies 98.3 WIOE
p11
aVTime Machine
p12
aVAlternativa
p13
aVRadiosphere.ca
p14
aVAltRadio.us
p15
aVNation Radio
p16
aVMixRadio Live
p17
aVDreamDanceRadioMix
p18
aVradio fm cadaval oeste
p19
aVrealitycheckRADIO
p20
aS''
p21
aVBay Area Radio USA
p22
aVPrimaradio: ValsOnAir
p23
aVNOTHING BUT THE HITS - 50'S - 90'S - NO COMERCIALS
p24
aVOldies Paradise
p25
aVRock Star Radio Donde La Estrella Eres Tu
p26
aVWeb Radio Music
p27
aVGreeneRadio
p28
aVGetWitIT Radio
p29
ag21
aVAladnaFM
p30
aVRadio Assai
p31
aVSurferGirl
p32
aVFMFlashback
p33
aVRadio Rock Ao vivo
p34
aVTenacity Radio
p35
aVRadio Pirat Roamania
p36
aVNashville Classics
p37
aVonly radio
p38
aVMixLive.ie Channels 3 - Psybient Sunset
p39
aVRock from Perperikon
p40
aVDaRadioCityCom AutoDj
p41
aVLa Motte Street Radio
p42
aVHappy-Sunshine-Radio-AutoDJ
p43
aVMiami Radio
p44
aVNRG 107 FM Dance
p45
aVGoldStacja
p46
aVTitulo da Transmissao
p47
aVRetroheaven
p48
aVRaven Radio Love 24/7
p49
aVPulse Dj
p50
aVBestNetRadio.com - The Mix
p51
aVSomos Shock
p52
aVFusion Radio. The Future of Dance
p53
aVFM VIOLETA 314
p54
aVHoHoHo Radio
p55
aVGreece Rock Classic rockradiogr.com
p56
aVradioLoL
p57
aVCemex Radio
p58
aVShoutcast: K-Dave
p59
aVRadio Ingleses
p60
aVRhema Gospel
p61
aVTallina
p62
aVMACCA Radio
p63
aVRevolution Christmas
p64
aVMilitary Brotherhood Radio - MBR
p65
aVClub Radio Bazar
p66
aVHabboFun Radio :: DSL Stream
p67
aVPvplayers - Radio
p68
aVNERadio Nonstop aac+ - Best of Techno &amp; Trance | www.neradio.fm
p69
ag21
ag21
aV))) POLSKASTACJA .PL ))) - Blues (Polskie Radio),aacplus
p70
aVSpacialNet: Katy Radio
p71
aVMasKeRadio
p72
aVRadio Bruno
p73
aVOTORADIO
p74
aVRepublic Radio
p75
aVC Sibon
p76
aVWHWR Hendersonville NC 1530 AM
p77
aVStream Name
p78
aVFNOOB Techno 192
p79
aVR?dio Virtua Mix
p80
aVRipRockRadio
p81
aVThe Apocalypse Bunnies!
p82
aVROCK FM online
p83
aVwww.Radio.Wellenbereich.de MainStream
p84
aVSpesradio
p85
ag21
ag21
aVRadio Roda FM
p86
ag21
ag21
aVMusic Xpress Radio
p87
ag21
ag21
aVBest of
p88
aVwww.radio-johanna.de
p89
aVErotik Center
p90
aVTOP ROCK NEWS
p91
aVMetal and Rock with Hanby Fiesta Radio!
p92
aVAir Alumni on the BIRN
p93
aVtimebase.fm Auto DJ
p94
aVAuto Liquid
p95
aVMetropolis Radio
p96
aVSo Da Vasco
p97
aVamysfm //
p98
aVRadio Studiodue
p99
aVLaDobleR
p100
aVDIMENSIONE RADIO
p101
aVAbsolute Spazz
p102
aVR?dioHC
p103
aVSchizophonic Radio
p104
aVALTERNATIVA RADIO
p105
aVRadio Prietenia
p106
aVSmoothbeats.com: Streaming non-stop underground &amp; mainstream hiphop beats 24/7!
p107
aVLegend fm 101.6 (Xanthi Gr)
p108
aVChartsradio FM
p109
aVLICHVAAL STEREO 92.6FM
p110
aVFrankoradio
p111
aVGreeneRadio
p112
aVFrecuencia Inapina
p113
aVFMRadiohead
p114
aVRadio Polskalive!
p115
aVGTT digital radio powered by ZIP
p116
aVW-G-M-S : The Worlds Greatest Music Station
p117
aVMakiBot-Dj
p118
aVMy Station name - Host by www.FreeSHOUTcast.com
p119
aVRadiosphere.ca
p120
aVStudio 501
p121
ag21
ag21
aVBubble n Shuffle
p122
aVRaven Radio Golden Oldies 24/7
p123
ag21
aVEnterprise Radio
p124
aVRadio Sistemas Web
p125
aVRadio Facciagiovane
p126
aVAAZO Radio Rap
p127
aVCheeseburgerjoe Radio
p128
aVJuiceBoXx Radio
p129
aV[Radio Extreme RU] 56k aacp
p130
aVDestroyer.net Radio :: Break Culture Advanced
p131
aVs3-Demo
p132
aVMerseyland Alternative Radio
p133
aVBI FM
p134
aVyear80,les tubes des annees 80 sans pubs
p135
a.