(lp0
VInsatiable Country
p1
aVAceRadio - Country Mix
p2
aVAaron FM
p3
aVRadio Delluxe Dance Romania
p4
aV90 Dance Radio 24/7 AAC+
p5
aVLegends-Radio
p6
aVradiorm
p7
aVRADIO BELMAT
p8
aVRadio Cueva
p9
aVLokale Omroep Zeewolde
p10
aVRadio Maquinas Voadoras
p11
aVTLC BOOMBOX
p12
aVHitradio-karlsruhe AutoDJ
p13
aVRadio Los 80 On Line
p14
aVGra dla Was AutoPilot
p15
aVPlaydio :: Bara Bra Musik :: Your Trance, Dance and House Station :: http://www.playdio.se ::
p16
aVKonectaLife
p17
aVDreamDanceRadioMix
p18
aVClubFM.lt - Club in your home!
p19
aVLyricist Hideaway
p20
aVwww.radiosky.it
p21
aVPower Hits Rock
p22
aVJimmykin radio rock on bitches jimmykin radio
p23
aS''
p24
aVA1A Rock
p25
aVEVA Amersfoort &amp; Leusden 105.2 FM (Smart Quality) *** Powered By Omroepstreaming.nl ***
p26
aVRadio EliteNLP
p27
aVThat's Dat Ish
p28
ag24
ag24
aVRadio Bruno
p29
aVOTORADIO
p30
aVRepublic Radio
p31
aVThe Daily Mash Up
p32
aV106.9 The Arrow
p33
aVRADIO STAR - LCN 678
p34
aVUltraRadio
p35
aV1540 WYCL - The Farm
p36
aVBestNetRadio.com - Christmas Classics
p37
aVRadio NoLimits
p38
aVAAZO Radio ***Top 200 Euro songs***
p39
ag24
aVDJ Principe
p40
ag24
ag24
aVFunradio-One
p41
aVRadio: black_panther
p42
ag24
aVZUTO RADIJAS
p43
aVLife &amp; Styles Radio @ YourChat.us
p44
aVThe Rock Party
p45
aVRadio Free Sarasota
p46
aVRipRockRadio
p47
aVAbsolute Spazz
p48
aVOldies Paradise
p49
aVnamez desde Madrid para Radio Ciberia
p50
aVboa
p51
aVNTN Radio Network
p52
aV100 XR - The Net's #1 Rock Station!!! Today's Best New Rock &amp; XtReme, Alternative, Classic Rock 128k
p53
aVRC Rdio Rock
p54
aVRadio Derf Soul
p55
aVFar Side Radio
p56
aVBSoul Radio
p57
aVRadio Play DJ Sites
p58
aVVelvet 96.8
p59
aVPvplayers - Radio
p60
aVGotRadio - Christmas Celebration
p61
aV1.FM - ABSOLUTE TOP 40 RADIO
p62
aVRFPRADIO.COM | Frances Levy Memorial
p63
aVPower Hits
p64
aVYou are listening to NOVA 100.3
p65
aVRadio Extrem
p66
aVKulcha Shok Muzik Radio
p67
aVLWR RADIO REGGAE
p68
aV181.FM -Reggae
p69
aVZecom Radio - Gemz Radio
p70
aVZecom Radio - Gemz Radio
p71
aVTim's Greatest Oldies
p72
aVRadio 19
p73
aVClub Savannah
p74
aVRyze Radio Network
p75
aVCyberstream Radio
p76
aVRPTDJ
p77
aVSpacialNet: ClubMav
p78
aVxsence trancenation
p79
aVRadiofmdance
p80
aVJukebox onthe Rocks
p81
aVSpacialNet: W1PJM Satin Radio
p82
aVOtto DJ
p83
aVALL 70's Music Machine
p84
aVErisya Music Station
p85
aVNighttime Dispatch Radio
p86
aVJuKeBoX Offered By TrueShell
p87
aVThis iz radio
p88
aVRadio Yesterday by Radio L'Olgiata
p89
aVDeathlord Radio: Deathlord Radio
p90
aVJazzonemusic Web Rdio
p91
aVCALMRADIO.COM - BIG BAND - Sampler
p92
aVJazzKeyn
p93
aVAsizaWolf's Stream: Unnamed Server
p94
aVAtmosphere Radio
p95
aVRadio Hemingway
p96
aV'AddictedToRadio.com - Easy Listening'
p97
aVRadio Caprice Swing
p98
ag24
aVStrangeways Radio
p99
aVHBRN - Home Business Radio Network
p100
aVRAAR FM Mobile -No Excuse Raar FM Rocks- visit our
p101
aVEasy Listening
p102
aVSoundBox GrandPa
p103
aVRadio Club Mix Romania2
p104
aVWMAC Radio (Worldwide Music &amp; Chat Radio)
p105
aVGra dla Was AutoPilot
p106
ag24
aVALFA SPIRIT
p107
aVRFPRADIO.COM | Sexy Soulful Christmas
p108
ag24
aVSky Rock
p109
aVMelancolie Radio
p110
aVRadio Unique - Eindelijk Weer Jouw Muziek
p111
aVAutoDjDetona
p112
aVRdio Comunicativa
p113
aVRoxBoxHD
p114
aVIsland Dreamz Radio
p115
aVForesight Radio
p116
aVInsatiable Country
p117
aVStream Name
p118
aVOldies
p119
aVRaven Radio Mariah Carey 24/7
p120
aVwww.yugoteka.com
p121
aVZwaluw nonstop
p122
aV#PYRAMID Radio -- BIG 'ROCK' Radio
p123
aVRadio Conexao de Paz - Criciuma - SC
p124
aVTWOJE ULUBIONE PRZEBOJE
p125
aVAlpha FM 104.7 streams at 128kbs
p126
aVThese Changing Timez Radio
p127
aVFNOOB Techno 192
p128
aVErrorFM Music mobile
p129
aVChilltrax - The World's Chillout Channel
p130
aVDoowop Oldies Radio/Jazz
p131
ag24
a.