(lp0
VKVLT Radio
p1
aVGameFM
p2
aVFuseFM AutoDJ
p3
aV** studio mand ** DJ lassie
p4
aVROCKIN BAD BOYS RADIO
p5
aVWeah Radio
p6
aVAll 1 Rock
p7
aVKLIT FM 107.3 Severa Beach California
p8
aVBig R Radio - The Halloween Channel
p9
aVDJ_Neko
p10
aVWILD Radio - Simulcasting on UICN Radio!!! - **** MUSIC is the doctor! ****
p11
aVINSANERADIO #1 with DJLunatic Fringe
p12
aVDJ Jukebox
p13
aVRadio Desire
p14
aVMixtape Radio
p15
aVRadio: Aus dem Studio Mhlhausen/Thringen
p16
aVFormat 3 - Australia - The Songs You Know But Diff
p17
aVEuphorium Chill Dubstep Radio
p18
aVHeaven877
p19
aS''
p20
ag20
aVRadio Polskalive!
p21
aVRadiolisolo Mokili Mobimba
p22
aVNo Talk Jalk
p23
aVRdio Funk Trs Rios
p24
aVtashaelove's Stream: My Station name
p25
aVXstream Sound
p26
aVTMFR8DIO
p27
aVEstao W8
p28
aVStigma Radio
p29
aVEtrad Alex Mix of Blues &amp; Rock
p30
aVRadio Wellenflug - Auto DJ - Wellenflieger
p31
ag20
aVGotRadio - Rock Country
p32
aV1.FM - ABSOLUTE COUNTRY RADIO
p33
aVVing Country Hits
p34
aVHeavyMetalOasis
p35
aVRaven Radio Slayer 24/7
p36
aVPOPS IS ON THE AIR
p37
aVJKAT
p38
aVJr.FM Top Hits
p39
aVRadio DJ Clayton
p40
aV106.3 - Townsville Australia
p41
aVXtream Support Center stream test
p42
aVRadio MW
p43
aVKool Radio 1105
p44
aVBarefoot Radio
p45
aVRadio Boo
p46
aVMovieTicketRadio.com POP VERSION
p47
aVRadio Caseo
p48
aVKCSN 88.5 FM/HD1 - The Music You Want
p49
aVFm Libertad Corzuela
p50
aVNow Playing
p51
aVSpacialNet: NKEC/TITAN RADIO
p52
aVWNMC 48K mono
p53
aVMoto MAGNA
p54
aVRadio BELQTA Plovdiv
p55
aVradioaltapressao
p56
aVKaban FM : Muzik Hitz Retro Terkini !
p57
aVMec Radio Universitas Bakrie - Follow me @MecRadio- meclubonline.wordpress.com- kom.bakrie.ac.id- ww
p58
aV540-AM WRGC
p59
aVLong Walk SC
p60
aVAtlantic Oldies 2NG
p61
aVKILLER RABBIT RADIO--Commercial free ! Games,horoscopes,news and more.
p62
aVJazz Con Class
p63
aVSomehowJazz
p64
aVLos Santos FM
p65
aVBoombird Radio
p66
aVRadio Polsum DIGGI 24Stunden
p67
aVmacjingle Heartbeat
p68
aVAutodj von JoesCrazyradio
p69
aVRadio Cidade Online
p70
aVDAR-FM The SpotlightRadio
p71
aVStreamStudio Demo
p72
ag20
aVMarketeers Radio
p73
aVRadio templo do amor
p74
aVtodoexitos romantico
p75
aVdhika | Radio Ooiya | Ooiya.com
p76
aVScreamo Radio 2
p77
aVKGUP 106.5FM 'The Emerge Radio Networks'
p78
aVHappyday Newage Radio EZ Channel
p79
aVESC RADIO - THE EUROVISION SONG CONTEST RADIO
p80
aVRCKO HD
p81
aVCaspar
p82
aVRadioWebb
p83
aV181.FM - 70's
p84
aVRadio FG Belgium
p85
aVwcrl college radio live
p86
aVActiveRadioEsneux //
p87
aVThe Shoot Radio
p88
aVClassic Hits Radio Canada
p89
aVRadio Exceso Desde Cd Juarez Chih Mexico
p90
aVAllhits 7890 Radio
p91
aVBuckeye Music Magazine Radio
p92
aVRetroheaven
p93
aVCenter Radio Testserver
p94
ag20
ag20
aVLoungeFM
p95
aVRADIO ZETAONLINE 'LA AUTENTICA ROCK AND POP'
p96
aVs3-Demo
p97
aVsefa auto dj
p98
aVTim's Adult Rock
p99
aVHosted By DJ - JeNZ
p100
aVDragTeam DJ
p101
aVOxygen Radio
p102
aVSuper Hits 94
p103
aVRdio Legal na Web
p104
aVRadio Free Phoenix (Free Form Rock)
p105
aVClassic Tunes 2 - StaN's *Pacific*
p106
aVChatterus Radio
p107
aVCollaboMuzik247Radio
p108
aVIkonic Radio
p109
aVradio musica baile
p110
aVRADIO DIFFUSIONE PISTOIA
p111
aVOsiriens-Radio-World - Querbeet
p112
aVAAZO Radio 90s Top 500 Songs 40kbps
p113
aVEYE97 - Non Stop Dance and Club Mix
p114
aVAAZO Radio 90s ***Top 500 Songs*** 128kbps
p115
aVRadio PlayMusic
p116
aVArena Web Radio
p117
aVHypersonic Radio
p118
aVDUBTRONIK RADIO
p119
aVPlaneta Reggae Auto DJ
p120
ag20
aVSEXYGAMEHHH
p121
aVAuto xXx
p122
aVDJ JEFF
p123
aVTokRock Radio * Hard * www.tokrock.com
p124
aVSplit Infinity Radio
p125
aVRdio Web Hits Club - Teresina - Pi
p126
aVFizma Radio
p127
aVXtream Support Center stream test
p128
aVThe Rock Slot 128 @ RadioSlot.com
p129
aVHotel And Tourist Radio - HTR
p130
aVRadio Shopping Recife
p131
aVNew Music Mix of the 80s &amp; 90s - StaN's
p132
a.